target datalayout = "e-m:e-p270:32:32-p271:32:32-p272:64:64-i64:64-i128:128-f80:128-n8:16:32:64-S128"
target triple = "x86_64-pc-linux-gnu"

@WARN_ON_MISSING_DATA = global i32 0, align 4
@.str.6 = private unnamed_addr constant [22 x i8] c"TEST CAN'T BE FOUND!\0A\00", align 1
@ERROR_COUNT = internal global i32 0, align 4
@ERRONEOUS_FUNCTION_COUNT = internal global i32 0, align 4
@ON_LINE = internal global i8 0, align 1
@knownList = internal global ptr null, align 8
@stdout = external global ptr, align 8
@.str.7 = private unnamed_addr constant [49 x i8] c"(To run suppressed tests, use the -K option.) \0A\0A\00", align 1
@.str.8 = private unnamed_addr constant [11 x i8] c"\0ASUMMARY:\0A\00", align 1
@.str.9 = private unnamed_addr constant [33 x i8] c"******* [Total error count:\09%d]\0A\00", align 1
@.str.10 = private unnamed_addr constant [12 x i8] c" Errors in\0A\00", align 1
@.str.11 = private unnamed_addr constant [6 x i8] c"[%s]\0A\00", align 1
@ERROR_LOG = internal global [4096 x [128 x i8]] zeroinitializer, align 16
@SUMMARY_FILE = internal global ptr null, align 8
@.str.12 = private unnamed_addr constant [2 x i8] c"w\00", align 1
@.str.13 = private unnamed_addr constant [4 x i8] c"%s\0A\00", align 1
@.str.14 = private unnamed_addr constant [37 x i8] c"\0A[All tests passed successfully...]\0A\00", align 1
@DATA_ERROR_COUNT = internal global i32 0, align 4
@.str.15 = private unnamed_addr constant [199 x i8] c"\09*Note* some errors are data-loading related. If the data used is not the \0A\09stock ICU data (i.e some have been added or removed), consider using\0A\09the '-w' option to turn these errors into warnings.\0A\00", align 1
@.str.16 = private unnamed_addr constant [68 x i8] c"\09*WARNING* some data-loading errors were ignored by the -w option.\0A\00", align 1

; Function Attrs: nounwind uwtable
define void @runTests(ptr noundef %0) #0 {
  %2 = alloca ptr, align 8
  %3 = alloca i32, align 4
  %4 = alloca [512 x ptr], align 16
  %5 = alloca ptr, align 8
  store ptr %0, ptr %2, align 8, !tbaa !3
  call void @llvm.lifetime.start.p0(i64 4, ptr %3) #12
  call void @llvm.lifetime.start.p0(i64 4096, ptr %4) #12
  %6 = load ptr, ptr %2, align 8, !tbaa !3
  %7 = icmp eq ptr %6, null
  br i1 %7, label %8, label %9

8:                                                ; preds = %1
  call void (ptr, ...) @log_err(ptr noundef @.str.6)
  br label %9

9:                                                ; preds = %8, %1
  store i32 0, ptr @ERROR_COUNT, align 4, !tbaa !18
  store i32 0, ptr @ERRONEOUS_FUNCTION_COUNT, align 4, !tbaa !18
  %10 = load ptr, ptr %2, align 8, !tbaa !3
  %11 = getelementptr inbounds [512 x ptr], ptr %4, i64 0, i64 0
  call void @iterateTestsWithLevel(ptr noundef %10, i32 noundef 0, ptr noundef %11, i32 noundef 0)
  store i8 0, ptr @ON_LINE, align 1, !tbaa !20
  %12 = load ptr, ptr @knownList, align 8, !tbaa !14
  %13 = icmp ne ptr %12, null
  br i1 %13, label %14, label %23

14:                                               ; preds = %9
  %15 = load ptr, ptr @knownList, align 8, !tbaa !14
  %16 = call signext i8 @udbg_knownIssue_print(ptr noundef %15)
  %17 = icmp ne i8 %16, 0
  br i1 %17, label %18, label %21

18:                                               ; preds = %14
  %19 = load ptr, ptr @stdout, align 8, !tbaa !27
  %20 = call i32 (ptr, ptr, ...) @fprintf(ptr noundef %19, ptr noundef @.str.7) #12
  br label %21

21:                                               ; preds = %18, %14
  %22 = load ptr, ptr @knownList, align 8, !tbaa !14
  call void @udbg_knownIssue_close(ptr noundef %22)
  store ptr null, ptr @knownList, align 8, !tbaa !14
  br label %23

23:                                               ; preds = %21, %9
  %24 = load i32, ptr @ERROR_COUNT, align 4, !tbaa !18
  %25 = icmp ne i32 %24, 0
  br i1 %25, label %26, label %80

26:                                               ; preds = %23
  %27 = load ptr, ptr @stdout, align 8, !tbaa !27
  %28 = call i32 (ptr, ptr, ...) @fprintf(ptr noundef %27, ptr noundef @.str.8) #12
  %29 = load ptr, ptr @stdout, align 8, !tbaa !27
  %30 = call i32 @fflush(ptr noundef %29)
  %31 = load ptr, ptr @stdout, align 8, !tbaa !27
  %32 = load i32, ptr @ERROR_COUNT, align 4, !tbaa !18
  %33 = call i32 (ptr, ptr, ...) @fprintf(ptr noundef %31, ptr noundef @.str.9, i32 noundef %32) #12
  %34 = load ptr, ptr @stdout, align 8, !tbaa !27
  %35 = call i32 @fflush(ptr noundef %34)
  %36 = load ptr, ptr @stdout, align 8, !tbaa !27
  %37 = call i32 (ptr, ptr, ...) @fprintf(ptr noundef %36, ptr noundef @.str.10) #12
  store i32 0, ptr %3, align 4, !tbaa !18
  br label %38

38:                                               ; preds = %49, %26
  %39 = load i32, ptr %3, align 4, !tbaa !18
  %40 = load i32, ptr @ERRONEOUS_FUNCTION_COUNT, align 4, !tbaa !18
  %41 = icmp slt i32 %39, %40
  br i1 %41, label %42, label %52

42:                                               ; preds = %38
  %43 = load ptr, ptr @stdout, align 8, !tbaa !27
  %44 = load i32, ptr %3, align 4, !tbaa !18
  %45 = sext i32 %44 to i64
  %46 = getelementptr inbounds [4096 x [128 x i8]], ptr @ERROR_LOG, i64 0, i64 %45
  %47 = getelementptr inbounds [128 x i8], ptr %46, i64 0, i64 0
  %48 = call i32 (ptr, ptr, ...) @fprintf(ptr noundef %43, ptr noundef @.str.11, ptr noundef %47) #12
  br label %49

49:                                               ; preds = %42
  %50 = load i32, ptr %3, align 4, !tbaa !18
  %51 = add nsw i32 %50, 1
  store i32 %51, ptr %3, align 4, !tbaa !18
  br label %38, !llvm.loop !29

52:                                               ; preds = %38
  %53 = load ptr, ptr @SUMMARY_FILE, align 8, !tbaa !15
  %54 = icmp ne ptr %53, null
  br i1 %54, label %55, label %79

55:                                               ; preds = %52
  call void @llvm.lifetime.start.p0(i64 8, ptr %5) #12
  %56 = load ptr, ptr @SUMMARY_FILE, align 8, !tbaa !15
  %57 = call noalias ptr @fopen(ptr noundef %56, ptr noundef @.str.12)
  store ptr %57, ptr %5, align 8, !tbaa !27
  %58 = load ptr, ptr %5, align 8, !tbaa !27
  %59 = icmp ne ptr %58, null
  br i1 %59, label %60, label %78

60:                                               ; preds = %55
  store i32 0, ptr %3, align 4, !tbaa !18
  br label %61

61:                                               ; preds = %72, %60
  %62 = load i32, ptr %3, align 4, !tbaa !18
  %63 = load i32, ptr @ERRONEOUS_FUNCTION_COUNT, align 4, !tbaa !18
  %64 = icmp slt i32 %62, %63
  br i1 %64, label %65, label %75

65:                                               ; preds = %61
  %66 = load ptr, ptr %5, align 8, !tbaa !27
  %67 = load i32, ptr %3, align 4, !tbaa !18
  %68 = sext i32 %67 to i64
  %69 = getelementptr inbounds [4096 x [128 x i8]], ptr @ERROR_LOG, i64 0, i64 %68
  %70 = getelementptr inbounds [128 x i8], ptr %69, i64 0, i64 0
  %71 = call i32 (ptr, ptr, ...) @fprintf(ptr noundef %66, ptr noundef @.str.13, ptr noundef %70) #12
  br label %72

72:                                               ; preds = %65
  %73 = load i32, ptr %3, align 4, !tbaa !18
  %74 = add nsw i32 %73, 1
  store i32 %74, ptr %3, align 4, !tbaa !18
  br label %61, !llvm.loop !30

75:                                               ; preds = %61
  %76 = load ptr, ptr %5, align 8, !tbaa !27
  %77 = call i32 @fclose(ptr noundef %76)
  br label %78

78:                                               ; preds = %75, %55
  call void @llvm.lifetime.end.p0(i64 8, ptr %5) #12
  br label %79

79:                                               ; preds = %78, %52
  br label %81

80:                                               ; preds = %23
  call void (ptr, ...) @log_testinfo(ptr noundef @.str.14)
  br label %81

81:                                               ; preds = %80, %79
  %82 = load i32, ptr @DATA_ERROR_COUNT, align 4, !tbaa !18
  %83 = icmp ne i32 %82, 0
  br i1 %83, label %84, label %90

84:                                               ; preds = %81
  %85 = load i32, ptr @WARN_ON_MISSING_DATA, align 4, !tbaa !18
  %86 = icmp eq i32 %85, 0
  br i1 %86, label %87, label %88

87:                                               ; preds = %84
  call void (ptr, ...) @log_testinfo(ptr noundef @.str.15)
  br label %89

88:                                               ; preds = %84
  call void (ptr, ...) @log_testinfo(ptr noundef @.str.16)
  br label %89

89:                                               ; preds = %88, %87
  br label %90

90:                                               ; preds = %89, %81
  call void @llvm.lifetime.end.p0(i64 4096, ptr %4) #12
  call void @llvm.lifetime.end.p0(i64 4, ptr %3) #12
  ret void
}