; Function Attrs: nounwind uwtable
define void @runTests(ptr noundef %0) local_unnamed_addr #0 {
  %2 = alloca [512 x ptr], align 16
  call void @llvm.lifetime.start.p0(i64 4096, ptr nonnull %2) #23
  %3 = icmp eq ptr %0, null
  br i1 %3, label %.split11, label %.split

.split:                                           ; preds = %1
  store i32 0, ptr @ERROR_COUNT, align 4, !tbaa !18
  store i32 0, ptr @ERRONEOUS_FUNCTION_COUNT, align 4, !tbaa !18
  call fastcc void @iterateTestsWithLevel(ptr noundef nonnull %0, i32 noundef 0, ptr noundef %2, i32 noundef 0)
  br label %5

.split11:                                         ; preds = %1
  tail call void (ptr, ...) @log_err(ptr noundef nonnull @.str.6)
  store i32 0, ptr @ERROR_COUNT, align 4, !tbaa !18
  store i32 0, ptr @ERRONEOUS_FUNCTION_COUNT, align 4, !tbaa !18
  %4 = tail call double @uprv_getRawUTCtime_77() #23
  br label %5

5:                                                ; preds = %.split, %.split11
  store i1 false, ptr @ON_LINE, align 1
  %6 = load ptr, ptr @knownList, align 8, !tbaa !23
  %.not = icmp eq ptr %6, null
  br i1 %.not, label %14, label %7

7:                                                ; preds = %5
  %8 = call signext i8 @udbg_knownIssue_print(ptr noundef nonnull %6) #23
  %.not16 = icmp eq i8 %8, 0
  br i1 %.not16, label %12, label %9

9:                                                ; preds = %7
  %10 = load ptr, ptr @stdout, align 8, !tbaa !16
  %11 = call i64 @fwrite(ptr nonnull @.str.7, i64 48, i64 1, ptr %10)
  br label %12

12:                                               ; preds = %9, %7
  %13 = load ptr, ptr @knownList, align 8, !tbaa !23
  call void @udbg_knownIssue_close(ptr noundef %13) #23
  store ptr null, ptr @knownList, align 8, !tbaa !23
  br label %14

14:                                               ; preds = %12, %5
  %15 = load i32, ptr @ERROR_COUNT, align 4, !tbaa !18
  %.not17 = icmp eq i32 %15, 0
  br i1 %.not17, label %47, label %16

16:                                               ; preds = %14
  %17 = load ptr, ptr @stdout, align 8, !tbaa !16
  %18 = call i64 @fwrite(ptr nonnull @.str.8, i64 10, i64 1, ptr %17)
  %19 = load ptr, ptr @stdout, align 8, !tbaa !16
  %20 = call i32 @fflush(ptr noundef %19)
  %21 = load ptr, ptr @stdout, align 8, !tbaa !16
  %22 = load i32, ptr @ERROR_COUNT, align 4, !tbaa !18
  %23 = call i32 (ptr, ptr, ...) @fprintf(ptr noundef %21, ptr noundef nonnull @.str.9, i32 noundef %22) #23
  %24 = load ptr, ptr @stdout, align 8, !tbaa !16
  %25 = call i32 @fflush(ptr noundef %24)
  %26 = load ptr, ptr @stdout, align 8, !tbaa !16
  %27 = call i64 @fwrite(ptr nonnull @.str.10, i64 11, i64 1, ptr %26)
  %28 = load i32, ptr @ERRONEOUS_FUNCTION_COUNT, align 4, !tbaa !18
  %29 = icmp sgt i32 %28, 0
  br i1 %29, label %.lr.ph, label %._crit_edge

.lr.ph:                                           ; preds = %16, %.lr.ph
  %indvars.iv = phi i64 [ %indvars.iv.next, %.lr.ph ], [ 0, %16 ]
  %30 = load ptr, ptr @stdout, align 8, !tbaa !16
  %31 = getelementptr inbounds nuw [4096 x [128 x i8]], ptr @ERROR_LOG, i64 0, i64 %indvars.iv
  %32 = call i32 (ptr, ptr, ...) @fprintf(ptr noundef %30, ptr noundef nonnull @.str.11, ptr noundef nonnull %31) #23
  %indvars.iv.next = add nuw nsw i64 %indvars.iv, 1
  %33 = load i32, ptr @ERRONEOUS_FUNCTION_COUNT, align 4, !tbaa !18
  %34 = sext i32 %33 to i64
  %35 = icmp slt i64 %indvars.iv.next, %34
  br i1 %35, label %.lr.ph, label %._crit_edge, !llvm.loop !24

._crit_edge:                                      ; preds = %.lr.ph, %16
  %36 = load ptr, ptr @SUMMARY_FILE, align 8, !tbaa !21
  %.not18 = icmp eq ptr %36, null
  br i1 %.not18, label %48, label %37

37:                                               ; preds = %._crit_edge
  %38 = call noalias ptr @fopen(ptr noundef nonnull %36, ptr noundef nonnull @.str.12)
  %.not19 = icmp eq ptr %38, null
  br i1 %.not19, label %48, label %.preheader

.preheader:                                       ; preds = %37
  %39 = load i32, ptr @ERRONEOUS_FUNCTION_COUNT, align 4, !tbaa !18
  %40 = icmp sgt i32 %39, 0
  br i1 %40, label %.lr.ph23, label %._crit_edge24

.lr.ph23:                                         ; preds = %.preheader, %.lr.ph23
  %indvars.iv26 = phi i64 [ %indvars.iv.next27, %.lr.ph23 ], [ 0, %.preheader ]
  %41 = getelementptr inbounds nuw [4096 x [128 x i8]], ptr @ERROR_LOG, i64 0, i64 %indvars.iv26
  %42 = call i32 (ptr, ptr, ...) @fprintf(ptr noundef nonnull %38, ptr noundef nonnull @.str.13, ptr noundef nonnull %41) #23
  %indvars.iv.next27 = add nuw nsw i64 %indvars.iv26, 1
  %43 = load i32, ptr @ERRONEOUS_FUNCTION_COUNT, align 4, !tbaa !18
  %44 = sext i32 %43 to i64
  %45 = icmp slt i64 %indvars.iv.next27, %44
  br i1 %45, label %.lr.ph23, label %._crit_edge24, !llvm.loop !25

._crit_edge24:                                    ; preds = %.lr.ph23, %.preheader
  %46 = call i32 @fclose(ptr noundef nonnull %38)
  br label %48

47:                                               ; preds = %14
  call void (ptr, ...) @log_testinfo(ptr noundef nonnull @.str.14)
  br label %48

48:                                               ; preds = %37, %._crit_edge24, %._crit_edge, %47
  %49 = load i32, ptr @DATA_ERROR_COUNT, align 4, !tbaa !18
  %.not20 = icmp eq i32 %49, 0
  br i1 %.not20, label %52, label %.sink.split

.sink.split:                                      ; preds = %48
  %50 = load i32, ptr @WARN_ON_MISSING_DATA, align 4, !tbaa !18
  %51 = icmp eq i32 %50, 0
  %.str.15..str.16 = select i1 %51, ptr @.str.15, ptr @.str.16
  call void (ptr, ...) @log_testinfo(ptr noundef nonnull %.str.15..str.16)
  br label %52

52:                                               ; preds = %.sink.split, %48
  call void @llvm.lifetime.end.p0(i64 4096, ptr nonnull %2) #23
  ret void
}